; Function Attrs: mustprogress nounwind uwtable
define dso_local void @_ZN4llvm16DecodePSRLDQMaskEjjRNS_15SmallVectorImplIiEE(i32 noundef %0, i32 noundef %1, ptr noundef nonnull align 8 dereferenceable(16) %2) local_unnamed_addr #0 {
  %.not = icmp eq i32 %0, 0
  br i1 %.not, label %._crit_edge, label %.preheader.lr.ph

.preheader.lr.ph:                                 ; preds = %3
  %4 = getelementptr inbounds nuw i8, ptr %2, i64 16
  br label %.preheader

.preheader:                                       ; preds = %.preheader.lr.ph, %18
  %.013 = phi i32 [ 0, %.preheader.lr.ph ], [ %19, %18 ]
  %invariant.op = add i32 %1, %.013
  br label %5

5:                                                ; preds = %.preheader, %_ZN4llvm23SmallVectorTemplateBaseIiLb1EE9push_backEi.exit
  %.01112 = phi i32 [ 0, %.preheader ], [ %17, %_ZN4llvm23SmallVectorTemplateBaseIiLb1EE9push_backEi.exit ]
  %6 = add i32 %.01112, %1
  %.reass = add i32 %.01112, %invariant.op
  %7 = icmp ugt i32 %6, 15
  %spec.store.select = select i1 %7, i32 -2, i32 %.reass
  %8 = tail call noundef i64 @_ZNK4llvm15SmallVectorBaseIjE4sizeEv(ptr noundef nonnull align 8 dereferenceable(16) %2) #4
  %9 = add i64 %8, 1
  %10 = tail call noundef i64 @_ZNK4llvm15SmallVectorBaseIjE8capacityEv(ptr noundef nonnull align 8 dereferenceable(16) %2) #4
  %.not.i.i.i = icmp ugt i64 %9, %10
  br i1 %.not.i.i.i, label %11, label %_ZN4llvm23SmallVectorTemplateBaseIiLb1EE9push_backEi.exit

11:                                               ; preds = %5
  tail call void @_ZN4llvm15SmallVectorBaseIjE8grow_podEPvmm(ptr noundef nonnull align 8 dereferenceable(16) %2, ptr noundef nonnull %4, i64 noundef %9, i64 noundef 4) #4
  br label %_ZN4llvm23SmallVectorTemplateBaseIiLb1EE9push_backEi.exit

_ZN4llvm23SmallVectorTemplateBaseIiLb1EE9push_backEi.exit: ; preds = %5, %11
  %12 = load ptr, ptr %2, align 8
  %13 = tail call noundef i64 @_ZNK4llvm15SmallVectorBaseIjE4sizeEv(ptr noundef nonnull align 8 dereferenceable(16) %2) #4
  %14 = getelementptr inbounds i32, ptr %12, i64 %13
  store i32 %spec.store.select, ptr %14, align 1
  %15 = tail call noundef i64 @_ZNK4llvm15SmallVectorBaseIjE4sizeEv(ptr noundef nonnull align 8 dereferenceable(16) %2) #4
  %16 = add i64 %15, 1
  tail call void @_ZN4llvm15SmallVectorBaseIjE8set_sizeEm(ptr noundef nonnull align 8 dereferenceable(16) %2, i64 noundef %16) #4
  %17 = add nuw nsw i32 %.01112, 1
  %exitcond.not = icmp eq i32 %17, 16
  br i1 %exitcond.not, label %18, label %5, !llvm.loop !17

18:                                               ; preds = %_ZN4llvm23SmallVectorTemplateBaseIiLb1EE9push_backEi.exit
  %19 = add i32 %.013, 16
  %20 = icmp ult i32 %19, %0
  br i1 %20, label %.preheader, label %._crit_edge, !llvm.loop !18

._crit_edge:                                      ; preds = %18, %3
  ret void
}